target datalayout = "e-m:e-p270:32:32-p271:32:32-p272:64:64-i64:64-i128:128-f80:128-n8:16:32:64-S128"
target triple = "x86_64-pc-linux-gnu"

; Function Attrs: nounwind uwtable
define i32 @png_reciprocal(i32 noundef %0) #0 {
  %2 = alloca i32, align 4
  %3 = alloca i32, align 4
  %4 = alloca double, align 8
  store i32 %0, ptr %3, align 4
  %5 = load i32, ptr %3, align 4
  %6 = sitofp i32 %5 to double
  %7 = fdiv double 1.000000e+10, %6
  %8 = fadd double %7, 5.000000e-01
  %9 = call double @llvm.floor.f64(double %8)
  store double %9, ptr %4, align 8
  %10 = load double, ptr %4, align 8
  %11 = fcmp ole double %10, 0x41DFFFFFFFC00000
  br i1 %11, label %12, label %18

12:                                               ; preds = %1
  %13 = load double, ptr %4, align 8
  %14 = fcmp oge double %13, 0xC1E0000000000000
  br i1 %14, label %15, label %18

15:                                               ; preds = %12
  %16 = load double, ptr %4, align 8
  %17 = fptosi double %16 to i32
  store i32 %17, ptr %2, align 4
  br label %19

18:                                               ; preds = %12, %1
  store i32 0, ptr %2, align 4
  br label %19

19:                                               ; preds = %18, %15
  %20 = load i32, ptr %2, align 4
  ret i32 %20
}