; Function Attrs: mustprogress nofree norecurse nosync nounwind willreturn memory(none) uwtable
define i32 @png_reciprocal(i32 noundef %0) local_unnamed_addr #12 {
  %2 = sitofp i32 %0 to double
  %3 = fdiv double 1.000000e+10, %2
  %4 = fadd double %3, 5.000000e-01
  %5 = tail call double @llvm.floor.f64(double %4)
  %6 = fcmp ole double %5, 0x41DFFFFFFFC00000
  %7 = fcmp oge double %5, 0xC1E0000000000000
  %or.cond = and i1 %6, %7
  %8 = fptosi double %5 to i32
  %.0 = select i1 %or.cond, i32 %8, i32 0
  ret i32 %.0
}